; Function Attrs: mustprogress nounwind uwtable
define dso_local void @_ZN4node22PerIsolatePlatformData23GetForegroundTaskRunnerEv(ptr noalias nocapture writeonly sret(%"class.std::shared_ptr.48") align 8 %agg.result, ptr nocapture noundef nonnull readonly align 8 dereferenceable(576) %this) unnamed_addr #3 align 2 {
entry:
  %_M_refcount2.i.i.i = getelementptr inbounds i8, ptr %this, i64 24
  %0 = load ptr, ptr %_M_refcount2.i.i.i, align 8, !noalias !33
  %cmp.i.i.i.i = icmp eq ptr %0, null
  br i1 %cmp.i.i.i.i, label %if.then.i.i.i.i, label %lor.lhs.false.i.i.i.i

lor.lhs.false.i.i.i.i:                            ; preds = %entry
  %_M_use_count.i.i.i.i.i.i = getelementptr inbounds i8, ptr %0, i64 8
  %1 = load atomic i32, ptr %_M_use_count.i.i.i.i.i.i monotonic, align 8, !noalias !33
  br label %do.body.i.i.i.i.i

do.body.i.i.i.i.i:                                ; preds = %do.cond.i.i.i.i.i, %lor.lhs.false.i.i.i.i
  %__count.0.i.i.i.i.i = phi i32 [ %1, %lor.lhs.false.i.i.i.i ], [ %4, %do.cond.i.i.i.i.i ]
  %cmp.not.i.not.i.i.i.i = icmp eq i32 %__count.0.i.i.i.i.i, 0
  br i1 %cmp.not.i.not.i.i.i.i, label %if.then.i.i.i.i, label %do.cond.i.i.i.i.i

do.cond.i.i.i.i.i:                                ; preds = %do.body.i.i.i.i.i
  %add.i.i.i.i.i = add nsw i32 %__count.0.i.i.i.i.i, 1
  %2 = cmpxchg weak ptr %_M_use_count.i.i.i.i.i.i, i32 %__count.0.i.i.i.i.i, i32 %add.i.i.i.i.i acq_rel monotonic, align 8, !noalias !33
  %3 = extractvalue { i32, i1 } %2, 1
  %4 = extractvalue { i32, i1 } %2, 0
  br i1 %3, label %_ZNSt10shared_ptrIN4node22PerIsolatePlatformDataEED2Ev.exit, label %do.body.i.i.i.i.i, !llvm.loop !36

if.then.i.i.i.i:                                  ; preds = %do.body.i.i.i.i.i, %entry
  tail call void @abort() #24, !noalias !33
  unreachable

_ZNSt10shared_ptrIN4node22PerIsolatePlatformDataEED2Ev.exit: ; preds = %do.cond.i.i.i.i.i
  %add.ptr = getelementptr inbounds i8, ptr %this, i64 16
  %5 = load ptr, ptr %add.ptr, align 8, !noalias !33
  %6 = icmp eq ptr %5, null
  %add.ptr.i.i = getelementptr inbounds i8, ptr %5, i64 8
  %spec.select.i.i = select i1 %6, ptr null, ptr %add.ptr.i.i
  store ptr %spec.select.i.i, ptr %agg.result, align 8
  %_M_refcount.i.i = getelementptr inbounds i8, ptr %agg.result, i64 8
  store ptr %0, ptr %_M_refcount.i.i, align 8
  ret void
}